target datalayout = "e-m:e-p270:32:32-p271:32:32-p272:64:64-i64:64-i128:128-f80:128-n8:16:32:64-S128"
target triple = "x86_64-pc-linux-gnu"

@quiet_flag = external global i32, align 4
@stderr = external global ptr, align 8
@stdout = external global ptr, align 8
@.str.47 = private unnamed_addr constant [2 x i8] c"-\00", align 1
@.str.62 = private unnamed_addr constant [12 x i8] c"slurm-%u.sh\00", align 1
@.str.63 = private unnamed_addr constant [2 x i8] c"w\00", align 1
@.str.64 = private unnamed_addr constant [30 x i8] c"failed to open file `%s`: %m\0A\00", align 1
@.str.65 = private unnamed_addr constant [28 x i8] c"job script retrieval failed\00", align 1
@.str.66 = private unnamed_addr constant [39 x i8] c"batch script for job %u written to %s\0A\00", align 1

; Function Attrs: inlinehint nounwind willreturn memory(read) uwtable
define available_externally i64 @atoll(ptr noundef nonnull %0) #7 {
  %2 = alloca ptr, align 8
  store ptr %0, ptr %2, align 8
  %3 = load ptr, ptr %2, align 8
  %4 = call i64 @strtoll(ptr noundef %3, ptr noundef null, i32 noundef 10) #9
  ret i64 %4
}

; Function Attrs: nounwind uwtable
define dso_local i32 @scontrol_batch_script(i32 noundef %0, ptr noundef %1) #0 {
  %3 = alloca i32, align 4
  %4 = alloca i32, align 4
  %5 = alloca ptr, align 8
  %6 = alloca ptr, align 8
  %7 = alloca ptr, align 8
  %8 = alloca i32, align 4
  %9 = alloca i32, align 4
  %10 = alloca i32, align 4
  store i32 %0, ptr %4, align 4
  store ptr %1, ptr %5, align 8
  call void @llvm.lifetime.start.p0(i64 8, ptr %6) #9
  call void @llvm.lifetime.start.p0(i64 8, ptr %7) #9
  call void @llvm.lifetime.start.p0(i64 4, ptr %8) #9
  call void @llvm.lifetime.start.p0(i64 4, ptr %9) #9
  %11 = load i32, ptr %4, align 4
  %12 = icmp slt i32 %11, 1
  br i1 %12, label %13, label %14

13:                                               ; preds = %2
  store i32 -1, ptr %3, align 4
  store i32 1, ptr %10, align 4
  br label %82

14:                                               ; preds = %2
  %15 = load ptr, ptr %5, align 8
  %16 = getelementptr inbounds ptr, ptr %15, i64 0
  %17 = load ptr, ptr %16, align 8
  %18 = call i64 @atoll(ptr noundef %17) #11
  %19 = trunc i64 %18 to i32
  store i32 %19, ptr %9, align 4
  %20 = load i32, ptr %4, align 4
  %21 = icmp sgt i32 %20, 1
  br i1 %21, label %22, label %27

22:                                               ; preds = %14
  %23 = load ptr, ptr %5, align 8
  %24 = getelementptr inbounds ptr, ptr %23, i64 1
  %25 = load ptr, ptr %24, align 8
  %26 = call ptr @xstrdup(ptr noundef %25)
  store ptr %26, ptr %6, align 8
  br label %30

27:                                               ; preds = %14
  %28 = load i32, ptr %9, align 4
  %29 = call ptr (ptr, ...) @xstrdup_printf(ptr noundef @.str.62, i32 noundef %28)
  store ptr %29, ptr %6, align 8
  br label %30

30:                                               ; preds = %27, %22
  %31 = load ptr, ptr %6, align 8
  %32 = call i32 @xstrcmp(ptr noundef %31, ptr noundef @.str.47)
  %33 = icmp ne i32 %32, 0
  br i1 %33, label %36, label %34

34:                                               ; preds = %30
  %35 = load ptr, ptr @stdout, align 8
  store ptr %35, ptr %7, align 8
  br label %47

36:                                               ; preds = %30
  %37 = load ptr, ptr %6, align 8
  %38 = call noalias ptr @fopen(ptr noundef %37, ptr noundef @.str.63)
  store ptr %38, ptr %7, align 8
  %39 = icmp ne ptr %38, null
  br i1 %39, label %46, label %40

40:                                               ; preds = %36
  %41 = load ptr, ptr @stderr, align 8
  %42 = load ptr, ptr %6, align 8
  %43 = call i32 (ptr, ptr, ...) @fprintf(ptr noundef %41, ptr noundef @.str.64, ptr noundef %42) #9
  call void @slurm_xfree(ptr noundef %6)
  %44 = call ptr @__errno_location() #10
  %45 = load i32, ptr %44, align 4
  store i32 %45, ptr %3, align 4
  store i32 1, ptr %10, align 4
  br label %82

46:                                               ; preds = %36
  br label %47

47:                                               ; preds = %46, %34
  %48 = load ptr, ptr %7, align 8
  %49 = load i32, ptr %9, align 4
  %50 = call i32 @slurm_job_batch_script(ptr noundef %48, i32 noundef %49)
  store i32 %50, ptr %8, align 4
  %51 = load ptr, ptr %7, align 8
  %52 = load ptr, ptr @stdout, align 8
  %53 = icmp ne ptr %51, %52
  br i1 %53, label %54, label %57

54:                                               ; preds = %47
  %55 = load ptr, ptr %7, align 8
  %56 = call i32 @fclose(ptr noundef %55)
  br label %57

57:                                               ; preds = %54, %47
  %58 = load i32, ptr %8, align 4
  %59 = icmp ne i32 %58, 0
  br i1 %59, label %60, label %68

60:                                               ; preds = %57
  %61 = load ptr, ptr %7, align 8
  %62 = load ptr, ptr @stdout, align 8
  %63 = icmp ne ptr %61, %62
  br i1 %63, label %64, label %67

64:                                               ; preds = %60
  %65 = load ptr, ptr %6, align 8
  %66 = call i32 @unlink(ptr noundef %65) #9
  br label %67

67:                                               ; preds = %64, %60
  call void @slurm_perror(ptr noundef @.str.65)
  br label %80

68:                                               ; preds = %57
  %69 = load ptr, ptr %7, align 8
  %70 = load ptr, ptr @stdout, align 8
  %71 = icmp ne ptr %69, %70
  br i1 %71, label %72, label %79

72:                                               ; preds = %68
  %73 = load i32, ptr @quiet_flag, align 4
  %74 = icmp ne i32 %73, 1
  br i1 %74, label %75, label %79

75:                                               ; preds = %72
  %76 = load i32, ptr %9, align 4
  %77 = load ptr, ptr %6, align 8
  %78 = call i32 (ptr, ...) @printf(ptr noundef @.str.66, i32 noundef %76, ptr noundef %77)
  br label %79

79:                                               ; preds = %75, %72, %68
  br label %80

80:                                               ; preds = %79, %67
  call void @slurm_xfree(ptr noundef %6)
  %81 = load i32, ptr %8, align 4
  store i32 %81, ptr %3, align 4
  store i32 1, ptr %10, align 4
  br label %82

82:                                               ; preds = %80, %40, %13
  call void @llvm.lifetime.end.p0(i64 4, ptr %9) #9
  call void @llvm.lifetime.end.p0(i64 4, ptr %8) #9
  call void @llvm.lifetime.end.p0(i64 8, ptr %7) #9
  call void @llvm.lifetime.end.p0(i64 8, ptr %6) #9
  %83 = load i32, ptr %3, align 4
  ret i32 %83
}