; Function Attrs: nounwind uwtable
define dso_local i32 @scontrol_batch_script(i32 noundef %0, ptr noundef readonly captures(none) %1) local_unnamed_addr #0 {
  %3 = alloca ptr, align 8
  call void @llvm.lifetime.start.p0(i64 8, ptr nonnull %3) #16
  %4 = icmp slt i32 %0, 1
  br i1 %4, label %45, label %5

5:                                                ; preds = %2
  %6 = load ptr, ptr %1, align 8
  %7 = tail call i64 @strtoll(ptr noundef nonnull captures(none) %6, ptr noundef null, i32 noundef 10) #16
  %8 = trunc i64 %7 to i32
  %.not = icmp eq i32 %0, 1
  br i1 %.not, label %13, label %9

9:                                                ; preds = %5
  %10 = getelementptr inbounds nuw i8, ptr %1, i64 8
  %11 = load ptr, ptr %10, align 8
  %12 = tail call ptr @xstrdup(ptr noundef %11) #16
  br label %15

13:                                               ; preds = %5
  %14 = tail call ptr (ptr, ...) @xstrdup_printf(ptr noundef nonnull @.str.62, i32 noundef %8) #16
  br label %15

15:                                               ; preds = %13, %9
  %16 = phi ptr [ %14, %13 ], [ %12, %9 ]
  store ptr %16, ptr %3, align 8
  %17 = tail call i32 @xstrcmp(ptr noundef %16, ptr noundef nonnull @.str.47) #16
  %.not18 = icmp eq i32 %17, 0
  br i1 %.not18, label %18, label %20

18:                                               ; preds = %15
  %19 = load ptr, ptr @stdout, align 8
  br label %27

20:                                               ; preds = %15
  %21 = tail call noalias ptr @fopen(ptr noundef %16, ptr noundef nonnull @.str.63)
  %.not19 = icmp eq ptr %21, null
  br i1 %.not19, label %22, label %27

22:                                               ; preds = %20
  %23 = load ptr, ptr @stderr, align 8
  %24 = tail call i32 (ptr, ptr, ...) @fprintf(ptr noundef %23, ptr noundef nonnull @.str.64, ptr noundef %16) #20
  call void @slurm_xfree(ptr noundef nonnull %3) #16
  %25 = tail call ptr @__errno_location() #17
  %26 = load i32, ptr %25, align 4
  br label %45

27:                                               ; preds = %20, %18
  %.015 = phi ptr [ %21, %20 ], [ %19, %18 ]
  %28 = tail call i32 @slurm_job_batch_script(ptr noundef %.015, i32 noundef %8) #16
  %29 = load ptr, ptr @stdout, align 8
  %.not20 = icmp eq ptr %.015, %29
  br i1 %.not20, label %32, label %30

30:                                               ; preds = %27
  %31 = tail call i32 @fclose(ptr noundef %.015)
  br label %32

32:                                               ; preds = %30, %27
  %.not21 = icmp eq i32 %28, 0
  %33 = load ptr, ptr @stdout, align 8
  br i1 %.not21, label %38, label %34

34:                                               ; preds = %32
  %.not22 = icmp eq ptr %.015, %33
  br i1 %.not22, label %37, label %35

35:                                               ; preds = %34
  %36 = tail call i32 @unlink(ptr noundef %16) #16
  br label %37

37:                                               ; preds = %35, %34
  tail call void @slurm_perror(ptr noundef nonnull @.str.65) #16
  br label %44

38:                                               ; preds = %32
  %39 = icmp ne ptr %.015, %33
  %40 = load i32, ptr @quiet_flag, align 4
  %41 = icmp ne i32 %40, 1
  %or.cond = select i1 %39, i1 %41, i1 false
  br i1 %or.cond, label %42, label %44

42:                                               ; preds = %38
  %43 = tail call i32 (ptr, ...) @printf(ptr noundef nonnull dereferenceable(1) @.str.66, i32 noundef %8, ptr noundef %16)
  br label %44

44:                                               ; preds = %38, %42, %37
  call void @slurm_xfree(ptr noundef nonnull %3) #16
  br label %45

45:                                               ; preds = %2, %44, %22
  %.0 = phi i32 [ %28, %44 ], [ %26, %22 ], [ -1, %2 ]
  call void @llvm.lifetime.end.p0(i64 8, ptr nonnull %3) #16
  ret i32 %.0
}